; Function Attrs: mustprogress nounwind uwtable
define range(i32 0, -65535) i32 @_ZNK8WasmEdge4Host4WASI5INode10fdDatasyncEv(ptr noundef nonnull readonly align 8 captures(none) dereferenceable(200) %0) local_unnamed_addr #0 align 2 personality ptr @__gxx_personality_v0 {
  %2 = load i32, ptr %0, align 8
  %3 = invoke i32 @fdatasync(i32 noundef %2)
          to label %4 unwind label %12

4:                                                ; preds = %1
  %.not = icmp eq i32 %3, 0
  br i1 %.not, label %11, label %5

5:                                                ; preds = %4
  %6 = tail call ptr @__errno_location() #25
  %7 = load i32, ptr %6, align 4
  %8 = tail call noundef zeroext i16 @_ZN8WasmEdge4Host4WASI6detail9fromErrNoEi(i32 noundef %7) #24
  %9 = zext i16 %8 to i32
  %10 = shl nuw i32 %9, 16
  br label %11

11:                                               ; preds = %4, %5
  %.sroa.01.0.insert.insert = phi i32 [ %10, %5 ], [ 1, %4 ]
  ret i32 %.sroa.01.0.insert.insert

12:                                               ; preds = %1
  %13 = landingpad { ptr, i32 }
          catch ptr null
  %14 = extractvalue { ptr, i32 } %13, 0
  tail call void @__clang_call_terminate(ptr %14) #23
  unreachable
}